target datalayout = "e-m:e-p270:32:32-p271:32:32-p272:64:64-i64:64-i128:128-f80:128-n8:16:32:64-S128"
target triple = "x86_64-pc-linux-gnu"

; Function Attrs: nounwind uwtable
define hidden i32 @mbedtls_camellia_crypt_ctr(ptr noundef %0, i64 noundef %1, ptr noundef %2, ptr noundef %3, ptr noundef %4, ptr noundef %5, ptr noundef %6) #0 {
  %8 = alloca i32, align 4
  %9 = alloca ptr, align 8
  %10 = alloca i64, align 8
  %11 = alloca ptr, align 8
  %12 = alloca ptr, align 8
  %13 = alloca ptr, align 8
  %14 = alloca ptr, align 8
  %15 = alloca ptr, align 8
  %16 = alloca i32, align 4
  %17 = alloca i32, align 4
  %18 = alloca i64, align 8
  %19 = alloca i32, align 4
  store ptr %0, ptr %9, align 8, !tbaa !3
  store i64 %1, ptr %10, align 8, !tbaa !16
  store ptr %2, ptr %11, align 8, !tbaa !43
  store ptr %3, ptr %12, align 8, !tbaa !8
  store ptr %4, ptr %13, align 8, !tbaa !8
  store ptr %5, ptr %14, align 8, !tbaa !8
  store ptr %6, ptr %15, align 8, !tbaa !8
  call void @llvm.lifetime.start.p0(i64 4, ptr %16) #8
  call void @llvm.lifetime.start.p0(i64 4, ptr %17) #8
  call void @llvm.lifetime.start.p0(i64 8, ptr %18) #8
  %20 = load ptr, ptr %11, align 8, !tbaa !43
  %21 = load i64, ptr %20, align 8, !tbaa !16
  store i64 %21, ptr %18, align 8, !tbaa !16
  %22 = load i64, ptr %18, align 8, !tbaa !16
  %23 = icmp uge i64 %22, 16
  br i1 %23, label %24, label %25

24:                                               ; preds = %7
  store i32 -36, ptr %8, align 4
  store i32 1, ptr %19, align 4
  br label %78

25:                                               ; preds = %7
  br label %26

26:                                               ; preds = %57, %25
  %27 = load i64, ptr %10, align 8, !tbaa !16
  %28 = add i64 %27, -1
  store i64 %28, ptr %10, align 8, !tbaa !16
  %29 = icmp ne i64 %27, 0
  br i1 %29, label %30, label %75

30:                                               ; preds = %26
  %31 = load i64, ptr %18, align 8, !tbaa !16
  %32 = icmp eq i64 %31, 0
  br i1 %32, label %33, label %57

33:                                               ; preds = %30
  %34 = load ptr, ptr %9, align 8, !tbaa !3
  %35 = load ptr, ptr %12, align 8, !tbaa !8
  %36 = load ptr, ptr %13, align 8, !tbaa !8
  %37 = call i32 @mbedtls_camellia_crypt_ecb(ptr noundef %34, i32 noundef 1, ptr noundef %35, ptr noundef %36)
  store i32 16, ptr %17, align 4, !tbaa !10
  br label %38

38:                                               ; preds = %53, %33
  %39 = load i32, ptr %17, align 4, !tbaa !10
  %40 = icmp sgt i32 %39, 0
  br i1 %40, label %41, label %56

41:                                               ; preds = %38
  %42 = load ptr, ptr %12, align 8, !tbaa !8
  %43 = load i32, ptr %17, align 4, !tbaa !10
  %44 = sub nsw i32 %43, 1
  %45 = sext i32 %44 to i64
  %46 = getelementptr inbounds i8, ptr %42, i64 %45
  %47 = load i8, ptr %46, align 1, !tbaa !18
  %48 = add i8 %47, 1
  store i8 %48, ptr %46, align 1, !tbaa !18
  %49 = zext i8 %48 to i32
  %50 = icmp ne i32 %49, 0
  br i1 %50, label %51, label %52

51:                                               ; preds = %41
  br label %56

52:                                               ; preds = %41
  br label %53

53:                                               ; preds = %52
  %54 = load i32, ptr %17, align 4, !tbaa !10
  %55 = add nsw i32 %54, -1
  store i32 %55, ptr %17, align 4, !tbaa !10
  br label %38, !llvm.loop !47

56:                                               ; preds = %51, %38
  br label %57

57:                                               ; preds = %56, %30
  %58 = load ptr, ptr %14, align 8, !tbaa !8
  %59 = getelementptr inbounds nuw i8, ptr %58, i32 1
  store ptr %59, ptr %14, align 8, !tbaa !8
  %60 = load i8, ptr %58, align 1, !tbaa !18
  %61 = zext i8 %60 to i32
  store i32 %61, ptr %16, align 4, !tbaa !10
  %62 = load i32, ptr %16, align 4, !tbaa !10
  %63 = load ptr, ptr %13, align 8, !tbaa !8
  %64 = load i64, ptr %18, align 8, !tbaa !16
  %65 = getelementptr inbounds nuw i8, ptr %63, i64 %64
  %66 = load i8, ptr %65, align 1, !tbaa !18
  %67 = zext i8 %66 to i32
  %68 = xor i32 %62, %67
  %69 = trunc i32 %68 to i8
  %70 = load ptr, ptr %15, align 8, !tbaa !8
  %71 = getelementptr inbounds nuw i8, ptr %70, i32 1
  store ptr %71, ptr %15, align 8, !tbaa !8
  store i8 %69, ptr %70, align 1, !tbaa !18
  %72 = load i64, ptr %18, align 8, !tbaa !16
  %73 = add i64 %72, 1
  %74 = and i64 %73, 15
  store i64 %74, ptr %18, align 8, !tbaa !16
  br label %26, !llvm.loop !48

75:                                               ; preds = %26
  %76 = load i64, ptr %18, align 8, !tbaa !16
  %77 = load ptr, ptr %11, align 8, !tbaa !43
  store i64 %76, ptr %77, align 8, !tbaa !16
  store i32 0, ptr %8, align 4
  store i32 1, ptr %19, align 4
  br label %78

78:                                               ; preds = %75, %24
  call void @llvm.lifetime.end.p0(i64 8, ptr %18) #8
  call void @llvm.lifetime.end.p0(i64 4, ptr %17) #8
  call void @llvm.lifetime.end.p0(i64 4, ptr %16) #8
  %79 = load i32, ptr %8, align 4
  ret i32 %79
}